target datalayout = "e-m:e-p270:32:32-p271:32:32-p272:64:64-i64:64-i128:128-f80:128-n8:16:32:64-S128"
target triple = "x86_64-pc-linux-gnu"

%class.elapsedTimer = type <{ i64, i64, i8, [7 x i8] }>
%class.CompilerStatistics = type { %"class.CompilerStatistics::Data", %"class.CompilerStatistics::Data", i32, i32 }
%"class.CompilerStatistics::Data" = type { %class.elapsedTimer, i32, i32 }

@tty = external global ptr, align 8
@.str.104 = private unnamed_addr constant [160 x i8] c"  %s {speed: %6.3f bytes/s; standard: %6.3f s, %u bytes, %u methods; osr: %6.3f s, %u bytes, %u methods; nmethods_size: %u bytes; nmethods_code_size: %u bytes}\00", align 1

; Function Attrs: mustprogress nounwind uwtable
define linkonce_odr hidden noundef double @_ZN18CompilerStatistics10total_timeEv(ptr noundef nonnull align 8 dereferenceable(72) %0) #1 comdat align 2 {
  %2 = alloca ptr, align 8
  store ptr %0, ptr %2, align 8
  %3 = load ptr, ptr %2, align 8
  %4 = getelementptr inbounds %class.CompilerStatistics, ptr %3, i32 0, i32 0
  %5 = getelementptr inbounds %"class.CompilerStatistics::Data", ptr %4, i32 0, i32 0
  %6 = call noundef double @_ZNK12elapsedTimer7secondsEv(ptr noundef nonnull align 8 dereferenceable(17) %5)
  %7 = getelementptr inbounds %class.CompilerStatistics, ptr %3, i32 0, i32 1
  %8 = getelementptr inbounds %"class.CompilerStatistics::Data", ptr %7, i32 0, i32 0
  %9 = call noundef double @_ZNK12elapsedTimer7secondsEv(ptr noundef nonnull align 8 dereferenceable(17) %8)
  %10 = fadd double %6, %9
  ret double %10
}

; Function Attrs: mustprogress nounwind uwtable
define linkonce_odr hidden noundef double @_ZN18CompilerStatistics16bytes_per_secondEv(ptr noundef nonnull align 8 dereferenceable(72) %0) #1 comdat align 2 {
  %2 = alloca double, align 8
  %3 = alloca ptr, align 8
  %4 = alloca i32, align 4
  %5 = alloca double, align 8
  store ptr %0, ptr %3, align 8
  %6 = load ptr, ptr %3, align 8
  %7 = getelementptr inbounds %class.CompilerStatistics, ptr %6, i32 0, i32 0
  %8 = getelementptr inbounds %"class.CompilerStatistics::Data", ptr %7, i32 0, i32 1
  %9 = load i32, ptr %8, align 8
  %10 = getelementptr inbounds %class.CompilerStatistics, ptr %6, i32 0, i32 1
  %11 = getelementptr inbounds %"class.CompilerStatistics::Data", ptr %10, i32 0, i32 1
  %12 = load i32, ptr %11, align 8
  %13 = add i32 %9, %12
  store i32 %13, ptr %4, align 4
  %14 = load i32, ptr %4, align 4
  %15 = icmp eq i32 %14, 0
  br i1 %15, label %16, label %17

16:                                               ; preds = %1
  store double 0.000000e+00, ptr %2, align 8
  br label %29

17:                                               ; preds = %1
  %18 = call noundef double @_ZN18CompilerStatistics10total_timeEv(ptr noundef nonnull align 8 dereferenceable(72) %6)
  store double %18, ptr %5, align 8
  %19 = load double, ptr %5, align 8
  %20 = fcmp oeq double %19, 0.000000e+00
  br i1 %20, label %21, label %22

21:                                               ; preds = %17
  br label %27

22:                                               ; preds = %17
  %23 = load i32, ptr %4, align 4
  %24 = uitofp i32 %23 to double
  %25 = load double, ptr %5, align 8
  %26 = fdiv double %24, %25
  br label %27

27:                                               ; preds = %22, %21
  %28 = phi double [ 0.000000e+00, %21 ], [ %26, %22 ]
  store double %28, ptr %2, align 8
  br label %29

29:                                               ; preds = %27, %16
  %30 = load double, ptr %2, align 8
  ret double %30
}

; Function Attrs: mustprogress nounwind uwtable
define hidden void @_ZN13CompileBroker11print_timesEPKcP18CompilerStatistics(ptr noundef %0, ptr noundef %1) #1 align 2 {
  %3 = alloca ptr, align 8
  %4 = alloca ptr, align 8
  store ptr %0, ptr %3, align 8
  store ptr %1, ptr %4, align 8
  %5 = load ptr, ptr @tty, align 8
  %6 = load ptr, ptr %3, align 8
  %7 = load ptr, ptr %4, align 8
  %8 = call noundef double @_ZN18CompilerStatistics16bytes_per_secondEv(ptr noundef nonnull align 8 dereferenceable(72) %7)
  %9 = load ptr, ptr %4, align 8
  %10 = getelementptr inbounds %class.CompilerStatistics, ptr %9, i32 0, i32 0
  %11 = getelementptr inbounds %"class.CompilerStatistics::Data", ptr %10, i32 0, i32 0
  %12 = call noundef double @_ZNK12elapsedTimer7secondsEv(ptr noundef nonnull align 8 dereferenceable(17) %11)
  %13 = load ptr, ptr %4, align 8
  %14 = getelementptr inbounds %class.CompilerStatistics, ptr %13, i32 0, i32 0
  %15 = getelementptr inbounds %"class.CompilerStatistics::Data", ptr %14, i32 0, i32 1
  %16 = load i32, ptr %15, align 8
  %17 = load ptr, ptr %4, align 8
  %18 = getelementptr inbounds %class.CompilerStatistics, ptr %17, i32 0, i32 0
  %19 = getelementptr inbounds %"class.CompilerStatistics::Data", ptr %18, i32 0, i32 2
  %20 = load i32, ptr %19, align 4
  %21 = load ptr, ptr %4, align 8
  %22 = getelementptr inbounds %class.CompilerStatistics, ptr %21, i32 0, i32 1
  %23 = getelementptr inbounds %"class.CompilerStatistics::Data", ptr %22, i32 0, i32 0
  %24 = call noundef double @_ZNK12elapsedTimer7secondsEv(ptr noundef nonnull align 8 dereferenceable(17) %23)
  %25 = load ptr, ptr %4, align 8
  %26 = getelementptr inbounds %class.CompilerStatistics, ptr %25, i32 0, i32 1
  %27 = getelementptr inbounds %"class.CompilerStatistics::Data", ptr %26, i32 0, i32 1
  %28 = load i32, ptr %27, align 8
  %29 = load ptr, ptr %4, align 8
  %30 = getelementptr inbounds %class.CompilerStatistics, ptr %29, i32 0, i32 1
  %31 = getelementptr inbounds %"class.CompilerStatistics::Data", ptr %30, i32 0, i32 2
  %32 = load i32, ptr %31, align 4
  %33 = load ptr, ptr %4, align 8
  %34 = getelementptr inbounds %class.CompilerStatistics, ptr %33, i32 0, i32 2
  %35 = load i32, ptr %34, align 8
  %36 = load ptr, ptr %4, align 8
  %37 = getelementptr inbounds %class.CompilerStatistics, ptr %36, i32 0, i32 3
  %38 = load i32, ptr %37, align 4
  call void (ptr, ptr, ...) @_ZN12outputStream8print_crEPKcz(ptr noundef nonnull align 8 dereferenceable(56) %5, ptr noundef @.str.104, ptr noundef %6, double noundef %8, double noundef %12, i32 noundef %16, i32 noundef %20, double noundef %24, i32 noundef %28, i32 noundef %32, i32 noundef %35, i32 noundef %38)
  ret void
}