; Function Attrs: mustprogress nounwind uwtable
define hidden void @_ZN13CompileBroker11print_timesEPKcP18CompilerStatistics(ptr noundef %0, ptr noundef %1) local_unnamed_addr #0 align 2 {
  %3 = load ptr, ptr @tty, align 8
  %4 = getelementptr inbounds i8, ptr %1, i64 24
  %5 = load i32, ptr %4, align 8
  %6 = getelementptr inbounds i8, ptr %1, i64 56
  %7 = load i32, ptr %6, align 8
  %8 = add i32 %7, %5
  %9 = icmp eq i32 %8, 0
  br i1 %9, label %_ZN18CompilerStatistics16bytes_per_secondEv.exit, label %10

10:                                               ; preds = %2
  %11 = tail call noundef double @_ZNK12elapsedTimer7secondsEv(ptr noundef nonnull align 8 dereferenceable(17) %1) #20
  %12 = getelementptr inbounds i8, ptr %1, i64 32
  %13 = tail call noundef double @_ZNK12elapsedTimer7secondsEv(ptr noundef nonnull align 8 dereferenceable(17) %12) #20
  %14 = fadd double %11, %13
  %15 = fcmp oeq double %14, 0.000000e+00
  %16 = uitofp i32 %8 to double
  %17 = fdiv double %16, %14
  %18 = select i1 %15, double 0.000000e+00, double %17
  br label %_ZN18CompilerStatistics16bytes_per_secondEv.exit

_ZN18CompilerStatistics16bytes_per_secondEv.exit: ; preds = %2, %10
  %.0.i = phi double [ %18, %10 ], [ 0.000000e+00, %2 ]
  %19 = tail call noundef double @_ZNK12elapsedTimer7secondsEv(ptr noundef nonnull align 8 dereferenceable(17) %1) #20
  %20 = load i32, ptr %4, align 8
  %21 = getelementptr inbounds i8, ptr %1, i64 28
  %22 = load i32, ptr %21, align 4
  %23 = getelementptr inbounds i8, ptr %1, i64 32
  %24 = tail call noundef double @_ZNK12elapsedTimer7secondsEv(ptr noundef nonnull align 8 dereferenceable(17) %23) #20
  %25 = load i32, ptr %6, align 8
  %26 = getelementptr inbounds i8, ptr %1, i64 60
  %27 = load i32, ptr %26, align 4
  %28 = getelementptr inbounds i8, ptr %1, i64 64
  %29 = load i32, ptr %28, align 8
  %30 = getelementptr inbounds i8, ptr %1, i64 68
  %31 = load i32, ptr %30, align 4
  tail call void (ptr, ptr, ...) @_ZN12outputStream8print_crEPKcz(ptr noundef nonnull align 8 dereferenceable(56) %3, ptr noundef nonnull @.str.104, ptr noundef %0, double noundef %.0.i, double noundef %19, i32 noundef %20, i32 noundef %22, double noundef %24, i32 noundef %25, i32 noundef %27, i32 noundef %29, i32 noundef %31) #20
  ret void
}